; Function Attrs: mustprogress uwtable
define noundef i32 @uspoof_getBidiSkeleton_75(ptr noundef %sc, i32 noundef %direction, ptr noundef %id, i32 noundef %length, ptr noundef %dest, i32 noundef %destCapacity, ptr noundef %status) local_unnamed_addr #0 personality ptr @__gxx_personality_v0 {
entry:
  %idStr = alloca %"class.icu_75::UnicodeString", align 8
  %agg.tmp = alloca %"class.icu_75::ConstChar16Ptr", align 8
  %destStr = alloca %"class.icu_75::UnicodeString", align 8
  %agg.tmp7 = alloca %"class.icu_75::Char16Ptr", align 8
  %cmp = icmp eq i32 %length, -1
  %conv = zext i1 %cmp to i8
  store ptr %id, ptr %agg.tmp, align 8
  invoke void @_ZN6icu_7513UnicodeStringC1EaNS_14ConstChar16PtrEi(ptr noundef nonnull align 8 dereferenceable(64) %idStr, i8 noundef signext %conv, ptr noundef nonnull %agg.tmp, i32 noundef %length)
          to label %invoke.cont unwind label %lpad

invoke.cont:                                      ; preds = %entry
  %0 = load ptr, ptr %agg.tmp, align 8
  call void asm sideeffect "", "rm,~{memory},~{dirflag},~{fpsr},~{flags}"(ptr %0) #6, !srcloc !4
  %fUnion.i = getelementptr inbounds i8, ptr %idStr, i64 8
  %1 = load i16, ptr %fUnion.i, align 8
  %conv2.i7 = and i16 %1, 1
  %tobool.not = icmp eq i16 %conv2.i7, 0
  br i1 %tobool.not, label %invoke.cont3, label %if.then

if.then:                                          ; preds = %invoke.cont
  store i32 1, ptr %status, align 4
  br label %cleanup

lpad:                                             ; preds = %entry
  %2 = landingpad { ptr, i32 }
          cleanup
  %3 = load ptr, ptr %agg.tmp, align 8
  call void asm sideeffect "", "rm,~{memory},~{dirflag},~{fpsr},~{flags}"(ptr %3) #6, !srcloc !4
  br label %eh.resume

invoke.cont3:                                     ; preds = %invoke.cont
  store ptr getelementptr inbounds ({ [13 x ptr] }, ptr @_ZTVN6icu_7513UnicodeStringE, i64 0, i32 0, i64 2), ptr %destStr, align 8
  %fUnion2.i = getelementptr inbounds i8, ptr %destStr, i64 8
  store i16 2, ptr %fUnion2.i, align 8
  %call6 = invoke noundef nonnull align 8 dereferenceable(64) ptr @_Z38uspoof_getBidiSkeletonUnicodeString_75PK13USpoofChecker14UBiDiDirectionRKN6icu_7513UnicodeStringERS4_P10UErrorCode(ptr noundef %sc, i32 noundef %direction, ptr noundef nonnull align 8 dereferenceable(64) %idStr, ptr noundef nonnull align 8 dereferenceable(64) %destStr, ptr noundef %status)
          to label %invoke.cont5 unwind label %lpad4

invoke.cont5:                                     ; preds = %invoke.cont3
  store ptr %dest, ptr %agg.tmp7, align 8
  %call11 = invoke noundef i32 @_ZNK6icu_7513UnicodeString7extractENS_9Char16PtrEiR10UErrorCode(ptr noundef nonnull align 8 dereferenceable(64) %destStr, ptr noundef nonnull %agg.tmp7, i32 noundef %destCapacity, ptr noundef nonnull align 4 dereferenceable(4) %status)
          to label %invoke.cont10 unwind label %lpad9

invoke.cont10:                                    ; preds = %invoke.cont5
  %4 = load ptr, ptr %agg.tmp7, align 8
  call void asm sideeffect "", "rm,~{memory},~{dirflag},~{fpsr},~{flags}"(ptr %4) #6, !srcloc !10
  call void @_ZN6icu_7513UnicodeStringD1Ev(ptr noundef nonnull align 8 dereferenceable(64) %destStr) #6
  br label %cleanup

lpad4:                                            ; preds = %invoke.cont3
  %5 = landingpad { ptr, i32 }
          cleanup
  br label %ehcleanup

lpad9:                                            ; preds = %invoke.cont5
  %6 = landingpad { ptr, i32 }
          cleanup
  %7 = load ptr, ptr %agg.tmp7, align 8
  call void asm sideeffect "", "rm,~{memory},~{dirflag},~{fpsr},~{flags}"(ptr %7) #6, !srcloc !10
  br label %ehcleanup

ehcleanup:                                        ; preds = %lpad9, %lpad4
  %.pn = phi { ptr, i32 } [ %6, %lpad9 ], [ %5, %lpad4 ]
  call void @_ZN6icu_7513UnicodeStringD1Ev(ptr noundef nonnull align 8 dereferenceable(64) %destStr) #6
  call void @_ZN6icu_7513UnicodeStringD1Ev(ptr noundef nonnull align 8 dereferenceable(64) %idStr) #6
  br label %eh.resume

cleanup:                                          ; preds = %invoke.cont10, %if.then
  %retval.0 = phi i32 [ 0, %if.then ], [ %call11, %invoke.cont10 ]
  call void @_ZN6icu_7513UnicodeStringD1Ev(ptr noundef nonnull align 8 dereferenceable(64) %idStr) #6
  ret i32 %retval.0

eh.resume:                                        ; preds = %ehcleanup, %lpad
  %.pn.pn.pn = phi { ptr, i32 } [ %.pn, %ehcleanup ], [ %2, %lpad ]
  resume { ptr, i32 } %.pn.pn.pn
}